; Function Attrs: mustprogress nounwind uwtable
define dso_local noundef ptr @_ZN4node7process11BindingData11FromV8ValueEN2v85LocalINS2_5ValueEEE(ptr %value.coerce) local_unnamed_addr #3 align 2 {
entry:
  %0 = load i64, ptr %value.coerce, align 8
  %sub.i26 = add i64 %0, -1
  %1 = inttoptr i64 %sub.i26 to ptr
  %2 = load i64, ptr %1, align 8
  %sub.i = add i64 %2, 11
  %3 = inttoptr i64 %sub.i to ptr
  %4 = load i16, ptr %3, align 2
  %conv.i = zext i16 %4 to i32
  %cmp.i = icmp eq i16 %4, 1040
  %sub.i30 = add nsw i32 %conv.i, -1057
  %cmp1.i = icmp ult i32 %sub.i30, 1002
  %5 = select i1 %cmp.i, i1 true, i1 %cmp1.i
  br i1 %5, label %if.then.i, label %if.end.i

if.then.i:                                        ; preds = %entry
  %sub.i.i = add i64 %0, 31
  %6 = inttoptr i64 %sub.i.i to ptr
  %7 = load i64, ptr %6, align 8
  %8 = inttoptr i64 %7 to ptr
  br label %_ZN2v86Object34GetAlignedPointerFromInternalFieldEi.exit

if.end.i:                                         ; preds = %entry
  %call7.i = tail call noundef ptr @_ZN2v86Object38SlowGetAlignedPointerFromInternalFieldEi(ptr noundef nonnull align 1 dereferenceable(1) %value.coerce, i32 noundef 1) #25
  br label %_ZN2v86Object34GetAlignedPointerFromInternalFieldEi.exit

_ZN2v86Object34GetAlignedPointerFromInternalFieldEi.exit: ; preds = %if.end.i, %if.then.i
  %retval.i11.0 = phi ptr [ %8, %if.then.i ], [ %call7.i, %if.end.i ]
  ret ptr %retval.i11.0
}